target datalayout = "e-m:e-p270:32:32-p271:32:32-p272:64:64-i64:64-i128:128-f80:128-n8:16:32:64-S128"
target triple = "x86_64-pc-linux-gnu"

%struct.deal = type { i32, i32, [3 x i32], [3 x i32], [4 x [4 x i32]] }
%struct.moveType = type { i32, i32, i32, i32 }
%struct.ThreadData = type { [4 x i32], i32, i8, [4 x [4 x i16]], i32, %struct.pos, i8, [50 x [4 x i16]], [13 x %struct.WinnersType], [14 x %struct.moveType], [50 x %struct.moveType], [50 x %struct.moveType], double, i32, i32, [8192 x %struct.relRanksType], ptr, %class.Moves }
%struct.pos = type { [4 x [4 x i16]], [4 x i16], [4 x [4 x i8]], [4 x i32], [50 x [4 x i16]], [50 x i32], [50 x %struct.moveType], i32, i32, [4 x %struct.highCardType], [4 x %struct.highCardType] }
%struct.highCardType = type { i32, i32 }
%struct.WinnersType = type { i32, [4 x %struct.WinnerEntryType] }
%struct.WinnerEntryType = type { i32, i32, i32, i32, i32 }
%struct.relRanksType = type { [15 x [4 x %struct.absRankType]] }
%struct.absRankType = type { i8, i8 }
%class.Moves = type { i32, i32, i32, i32, i32, i32, i32, i32, i32, [13 x %"struct.Moves::trackType"], ptr, [13 x [4 x %struct.movePlyType]], ptr, [13 x [4 x i32]], [13 x %"class.std::__cxx11::basic_string"], [13 x [4 x %"struct.Moves::moveStatType"]], [13 x [4 x %"struct.Moves::moveStatType"]], [13 x [4 x %"struct.Moves::moveStatsType"]], [13 x [4 x %"struct.Moves::moveStatsType"]], %"struct.Moves::moveStatsType", %"struct.Moves::moveStatsType", [16 x { i64, i64 }] }
%"struct.Moves::trackType" = type { i32, i32, [4 x i32], [4 x i32], %struct.trickDataType, [4 x %struct.extCard], [4 x i32], [4 x [4 x i32]], [4 x i32] }
%struct.trickDataType = type { [4 x i32], i32, i32, i32, i32, i32 }
%struct.extCard = type { i32, i32, i32 }
%struct.movePlyType = type { [14 x %struct.moveType], i32, i32 }
%"class.std::__cxx11::basic_string" = type { %"struct.std::__cxx11::basic_string<char>::_Alloc_hider", i64, %union.anon }
%"struct.std::__cxx11::basic_string<char>::_Alloc_hider" = type { ptr }
%union.anon = type { i64, [8 x i8] }
%"struct.Moves::moveStatType" = type { i32, i32, i32, i32 }
%"struct.Moves::moveStatsType" = type { i32, [13 x %"struct.Moves::moveStatType"] }

@counttable = external global [8192 x i32], align 16
@bitMapRank = external global [16 x i16], align 16

; Function Attrs: mustprogress uwtable
define noundef i32 @_Z16BoardValueChecksRK4dealiiiPK10ThreadData(ptr noundef nonnull align 4 dereferenceable(96) %0, i32 noundef %1, i32 noundef %2, i32 noundef %3, ptr noundef %4) #4 {
  %6 = alloca i32, align 4
  %7 = alloca ptr, align 8
  %8 = alloca i32, align 4
  %9 = alloca i32, align 4
  %10 = alloca i32, align 4
  %11 = alloca ptr, align 8
  %12 = alloca i32, align 4
  %13 = alloca i32, align 4
  %14 = alloca i32, align 4
  %15 = alloca [4 x i32], align 16
  %16 = alloca i32, align 4
  %17 = alloca i32, align 4
  %18 = alloca i32, align 4
  %19 = alloca i32, align 4
  %20 = alloca i32, align 4
  %21 = alloca i16, align 2
  %22 = alloca i32, align 4
  %23 = alloca i32, align 4
  %24 = alloca i32, align 4
  %25 = alloca i8, align 1
  %26 = alloca i32, align 4
  store ptr %0, ptr %7, align 8
  store i32 %1, ptr %8, align 4
  store i32 %2, ptr %9, align 4
  store i32 %3, ptr %10, align 4
  store ptr %4, ptr %11, align 8
  %27 = load ptr, ptr %11, align 8
  %28 = getelementptr inbounds nuw %struct.ThreadData, ptr %27, i32 0, i32 1
  %29 = load i32, ptr %28, align 8
  %30 = add nsw i32 %29, 4
  store i32 %30, ptr %12, align 4
  %31 = load i32, ptr %12, align 4
  %32 = icmp sle i32 %31, 0
  br i1 %32, label %33, label %39

33:                                               ; preds = %5
  %34 = load ptr, ptr %7, align 8
  %35 = load i32, ptr %8, align 4
  %36 = load i32, ptr %9, align 4
  %37 = load i32, ptr %10, align 4
  %38 = call noundef i32 @_Z9DumpInputiRK4dealiii(i32 noundef -2, ptr noundef nonnull align 4 dereferenceable(96) %34, i32 noundef %35, i32 noundef %36, i32 noundef %37)
  store i32 -2, ptr %6, align 4
  br label %259

39:                                               ; preds = %5
  %40 = load i32, ptr %12, align 4
  %41 = icmp sgt i32 %40, 52
  br i1 %41, label %42, label %48

42:                                               ; preds = %39
  %43 = load ptr, ptr %7, align 8
  %44 = load i32, ptr %8, align 4
  %45 = load i32, ptr %9, align 4
  %46 = load i32, ptr %10, align 4
  %47 = call noundef i32 @_Z9DumpInputiRK4dealiii(i32 noundef -10, ptr noundef nonnull align 4 dereferenceable(96) %43, i32 noundef %44, i32 noundef %45, i32 noundef %46)
  store i32 -10, ptr %6, align 4
  br label %259

48:                                               ; preds = %39
  %49 = load i32, ptr %12, align 4
  %50 = srem i32 %49, 4
  %51 = icmp ne i32 %50, 0
  br i1 %51, label %52, label %57

52:                                               ; preds = %48
  %53 = load i32, ptr %12, align 4
  %54 = sub nsw i32 %53, 4
  %55 = ashr i32 %54, 2
  %56 = add nsw i32 %55, 2
  store i32 %56, ptr %13, align 4
  br label %62

57:                                               ; preds = %48
  %58 = load i32, ptr %12, align 4
  %59 = sub nsw i32 %58, 4
  %60 = ashr i32 %59, 2
  %61 = add nsw i32 %60, 1
  store i32 %61, ptr %13, align 4
  br label %62

62:                                               ; preds = %57, %52
  %63 = load i32, ptr %13, align 4
  %64 = load i32, ptr %8, align 4
  %65 = icmp slt i32 %63, %64
  br i1 %65, label %66, label %72

66:                                               ; preds = %62
  %67 = load ptr, ptr %7, align 8
  %68 = load i32, ptr %8, align 4
  %69 = load i32, ptr %9, align 4
  %70 = load i32, ptr %10, align 4
  %71 = call noundef i32 @_Z9DumpInputiRK4dealiii(i32 noundef -3, ptr noundef nonnull align 4 dereferenceable(96) %67, i32 noundef %68, i32 noundef %69, i32 noundef %70)
  store i32 -3, ptr %6, align 4
  br label %259

72:                                               ; preds = %62
  %73 = load ptr, ptr %11, align 8
  %74 = getelementptr inbounds nuw %struct.ThreadData, ptr %73, i32 0, i32 5
  %75 = getelementptr inbounds nuw %struct.pos, ptr %74, i32 0, i32 7
  %76 = load i32, ptr %75, align 4
  store i32 %76, ptr %14, align 4
  call void @llvm.memset.p0.i64(ptr align 16 %15, i8 0, i64 16, i1 false)
  store i32 0, ptr %16, align 4
  br label %77

77:                                               ; preds = %90, %72
  %78 = load i32, ptr %16, align 4
  %79 = load i32, ptr %14, align 4
  %80 = icmp slt i32 %78, %79
  br i1 %80, label %81, label %93

81:                                               ; preds = %77
  %82 = load ptr, ptr %7, align 8
  %83 = getelementptr inbounds nuw %struct.deal, ptr %82, i32 0, i32 1
  %84 = load i32, ptr %83, align 4
  %85 = load i32, ptr %16, align 4
  %86 = add nsw i32 %84, %85
  %87 = and i32 %86, 3
  %88 = sext i32 %87 to i64
  %89 = getelementptr inbounds [4 x i32], ptr %15, i64 0, i64 %88
  store i32 1, ptr %89, align 4
  br label %90

90:                                               ; preds = %81
  %91 = load i32, ptr %16, align 4
  %92 = add nsw i32 %91, 1
  store i32 %92, ptr %16, align 4
  br label %77, !llvm.loop !21

93:                                               ; preds = %77
  store i32 0, ptr %17, align 4
  br label %94

94:                                               ; preds = %123, %93
  %95 = load i32, ptr %17, align 4
  %96 = icmp slt i32 %95, 4
  br i1 %96, label %97, label %126

97:                                               ; preds = %94
  store i32 0, ptr %18, align 4
  br label %98

98:                                               ; preds = %119, %97
  %99 = load i32, ptr %18, align 4
  %100 = icmp slt i32 %99, 4
  br i1 %100, label %101, label %122

101:                                              ; preds = %98
  %102 = load ptr, ptr %11, align 8
  %103 = getelementptr inbounds nuw %struct.ThreadData, ptr %102, i32 0, i32 3
  %104 = load i32, ptr %17, align 4
  %105 = sext i32 %104 to i64
  %106 = getelementptr inbounds [4 x [4 x i16]], ptr %103, i64 0, i64 %105
  %107 = load i32, ptr %18, align 4
  %108 = sext i32 %107 to i64
  %109 = getelementptr inbounds [4 x i16], ptr %106, i64 0, i64 %108
  %110 = load i16, ptr %109, align 2
  %111 = zext i16 %110 to i64
  %112 = getelementptr inbounds [8192 x i32], ptr @counttable, i64 0, i64 %111
  %113 = load i32, ptr %112, align 4
  %114 = load i32, ptr %17, align 4
  %115 = sext i32 %114 to i64
  %116 = getelementptr inbounds [4 x i32], ptr %15, i64 0, i64 %115
  %117 = load i32, ptr %116, align 4
  %118 = add nsw i32 %117, %113
  store i32 %118, ptr %116, align 4
  br label %119

119:                                              ; preds = %101
  %120 = load i32, ptr %18, align 4
  %121 = add nsw i32 %120, 1
  store i32 %121, ptr %18, align 4
  br label %98, !llvm.loop !22

122:                                              ; preds = %98
  br label %123

123:                                              ; preds = %122
  %124 = load i32, ptr %17, align 4
  %125 = add nsw i32 %124, 1
  store i32 %125, ptr %17, align 4
  br label %94, !llvm.loop !23

126:                                              ; preds = %94
  store i32 1, ptr %19, align 4
  br label %127

127:                                              ; preds = %145, %126
  %128 = load i32, ptr %19, align 4
  %129 = icmp slt i32 %128, 4
  br i1 %129, label %130, label %148

130:                                              ; preds = %127
  %131 = load i32, ptr %19, align 4
  %132 = sext i32 %131 to i64
  %133 = getelementptr inbounds [4 x i32], ptr %15, i64 0, i64 %132
  %134 = load i32, ptr %133, align 4
  %135 = getelementptr inbounds [4 x i32], ptr %15, i64 0, i64 0
  %136 = load i32, ptr %135, align 16
  %137 = icmp ne i32 %134, %136
  br i1 %137, label %138, label %144

138:                                              ; preds = %130
  %139 = load ptr, ptr %7, align 8
  %140 = load i32, ptr %8, align 4
  %141 = load i32, ptr %9, align 4
  %142 = load i32, ptr %10, align 4
  %143 = call noundef i32 @_Z9DumpInputiRK4dealiii(i32 noundef -14, ptr noundef nonnull align 4 dereferenceable(96) %139, i32 noundef %140, i32 noundef %141, i32 noundef %142)
  store i32 -14, ptr %6, align 4
  br label %259

144:                                              ; preds = %130
  br label %145

145:                                              ; preds = %144
  %146 = load i32, ptr %19, align 4
  %147 = add nsw i32 %146, 1
  store i32 %147, ptr %19, align 4
  br label %127, !llvm.loop !24

148:                                              ; preds = %127
  store i32 0, ptr %20, align 4
  br label %149

149:                                              ; preds = %202, %148
  %150 = load i32, ptr %20, align 4
  %151 = load i32, ptr %14, align 4
  %152 = icmp slt i32 %150, %151
  br i1 %152, label %153, label %205

153:                                              ; preds = %149
  store i16 0, ptr %21, align 2
  store i32 0, ptr %22, align 4
  br label %154

154:                                              ; preds = %177, %153
  %155 = load i32, ptr %22, align 4
  %156 = icmp slt i32 %155, 4
  br i1 %156, label %157, label %180

157:                                              ; preds = %154
  %158 = load ptr, ptr %7, align 8
  %159 = getelementptr inbounds nuw %struct.deal, ptr %158, i32 0, i32 4
  %160 = load i32, ptr %22, align 4
  %161 = sext i32 %160 to i64
  %162 = getelementptr inbounds [4 x [4 x i32]], ptr %159, i64 0, i64 %161
  %163 = load ptr, ptr %7, align 8
  %164 = getelementptr inbounds nuw %struct.deal, ptr %163, i32 0, i32 2
  %165 = load i32, ptr %20, align 4
  %166 = sext i32 %165 to i64
  %167 = getelementptr inbounds [3 x i32], ptr %164, i64 0, i64 %166
  %168 = load i32, ptr %167, align 4
  %169 = sext i32 %168 to i64
  %170 = getelementptr inbounds [4 x i32], ptr %162, i64 0, i64 %169
  %171 = load i32, ptr %170, align 4
  %172 = lshr i32 %171, 2
  %173 = load i16, ptr %21, align 2
  %174 = zext i16 %173 to i32
  %175 = or i32 %174, %172
  %176 = trunc i32 %175 to i16
  store i16 %176, ptr %21, align 2
  br label %177

177:                                              ; preds = %157
  %178 = load i32, ptr %22, align 4
  %179 = add nsw i32 %178, 1
  store i32 %179, ptr %22, align 4
  br label %154, !llvm.loop !25

180:                                              ; preds = %154
  %181 = load i16, ptr %21, align 2
  %182 = zext i16 %181 to i32
  %183 = load ptr, ptr %7, align 8
  %184 = getelementptr inbounds nuw %struct.deal, ptr %183, i32 0, i32 3
  %185 = load i32, ptr %20, align 4
  %186 = sext i32 %185 to i64
  %187 = getelementptr inbounds [3 x i32], ptr %184, i64 0, i64 %186
  %188 = load i32, ptr %187, align 4
  %189 = sext i32 %188 to i64
  %190 = getelementptr inbounds [16 x i16], ptr @bitMapRank, i64 0, i64 %189
  %191 = load i16, ptr %190, align 2
  %192 = zext i16 %191 to i32
  %193 = and i32 %182, %192
  %194 = icmp ne i32 %193, 0
  br i1 %194, label %195, label %201

195:                                              ; preds = %180
  %196 = load ptr, ptr %7, align 8
  %197 = load i32, ptr %8, align 4
  %198 = load i32, ptr %9, align 4
  %199 = load i32, ptr %10, align 4
  %200 = call noundef i32 @_Z9DumpInputiRK4dealiii(i32 noundef -13, ptr noundef nonnull align 4 dereferenceable(96) %196, i32 noundef %197, i32 noundef %198, i32 noundef %199)
  store i32 -13, ptr %6, align 4
  br label %259

201:                                              ; preds = %180
  br label %202

202:                                              ; preds = %201
  %203 = load i32, ptr %20, align 4
  %204 = add nsw i32 %203, 1
  store i32 %204, ptr %20, align 4
  br label %149, !llvm.loop !26

205:                                              ; preds = %149
  store i32 0, ptr %23, align 4
  br label %206

206:                                              ; preds = %255, %205
  %207 = load i32, ptr %23, align 4
  %208 = icmp slt i32 %207, 4
  br i1 %208, label %209, label %258

209:                                              ; preds = %206
  store i32 2, ptr %24, align 4
  br label %210

210:                                              ; preds = %251, %209
  %211 = load i32, ptr %24, align 4
  %212 = icmp sle i32 %211, 14
  br i1 %212, label %213, label %254

213:                                              ; preds = %210
  store i8 0, ptr %25, align 1
  store i32 0, ptr %26, align 4
  br label %214

214:                                              ; preds = %247, %213
  %215 = load i32, ptr %26, align 4
  %216 = icmp slt i32 %215, 4
  br i1 %216, label %217, label %250

217:                                              ; preds = %214
  %218 = load ptr, ptr %11, align 8
  %219 = getelementptr inbounds nuw %struct.ThreadData, ptr %218, i32 0, i32 3
  %220 = load i32, ptr %26, align 4
  %221 = sext i32 %220 to i64
  %222 = getelementptr inbounds [4 x [4 x i16]], ptr %219, i64 0, i64 %221
  %223 = load i32, ptr %23, align 4
  %224 = sext i32 %223 to i64
  %225 = getelementptr inbounds [4 x i16], ptr %222, i64 0, i64 %224
  %226 = load i16, ptr %225, align 2
  %227 = zext i16 %226 to i32
  %228 = load i32, ptr %24, align 4
  %229 = sext i32 %228 to i64
  %230 = getelementptr inbounds [16 x i16], ptr @bitMapRank, i64 0, i64 %229
  %231 = load i16, ptr %230, align 2
  %232 = zext i16 %231 to i32
  %233 = and i32 %227, %232
  %234 = icmp ne i32 %233, 0
  br i1 %234, label %235, label %246

235:                                              ; preds = %217
  %236 = load i8, ptr %25, align 1
  %237 = trunc i8 %236 to i1
  br i1 %237, label %238, label %244

238:                                              ; preds = %235
  %239 = load ptr, ptr %7, align 8
  %240 = load i32, ptr %8, align 4
  %241 = load i32, ptr %9, align 4
  %242 = load i32, ptr %10, align 4
  %243 = call noundef i32 @_Z9DumpInputiRK4dealiii(i32 noundef -4, ptr noundef nonnull align 4 dereferenceable(96) %239, i32 noundef %240, i32 noundef %241, i32 noundef %242)
  store i32 -4, ptr %6, align 4
  br label %259

244:                                              ; preds = %235
  store i8 1, ptr %25, align 1
  br label %245

245:                                              ; preds = %244
  br label %246

246:                                              ; preds = %245, %217
  br label %247

247:                                              ; preds = %246
  %248 = load i32, ptr %26, align 4
  %249 = add nsw i32 %248, 1
  store i32 %249, ptr %26, align 4
  br label %214, !llvm.loop !27

250:                                              ; preds = %214
  br label %251

251:                                              ; preds = %250
  %252 = load i32, ptr %24, align 4
  %253 = add nsw i32 %252, 1
  store i32 %253, ptr %24, align 4
  br label %210, !llvm.loop !28

254:                                              ; preds = %210
  br label %255

255:                                              ; preds = %254
  %256 = load i32, ptr %23, align 4
  %257 = add nsw i32 %256, 1
  store i32 %257, ptr %23, align 4
  br label %206, !llvm.loop !29

258:                                              ; preds = %206
  store i32 1, ptr %6, align 4
  br label %259

259:                                              ; preds = %258, %238, %195, %138, %66, %42, %33
  %260 = load i32, ptr %6, align 4
  ret i32 %260
}