; Function Attrs: mustprogress uwtable
define noundef range(i32 -14, 2) i32 @_Z16BoardValueChecksRK4dealiiiPK10ThreadData(ptr noundef nonnull align 4 dereferenceable(96) %0, i32 noundef %1, i32 noundef %2, i32 noundef %3, ptr noundef readonly captures(none) %4) local_unnamed_addr #3 {
  %6 = alloca [4 x i32], align 16
  %7 = getelementptr inbounds nuw i8, ptr %4, i64 16
  %8 = load i32, ptr %7, align 8
  %9 = icmp slt i32 %8, -3
  br i1 %9, label %.loopexit.sink.split, label %10

10:                                               ; preds = %5
  %11 = icmp sgt i32 %8, 48
  br i1 %11, label %.loopexit.sink.split, label %12

12:                                               ; preds = %10
  %13 = and i32 %8, 3
  %.not = icmp eq i32 %13, 0
  %14 = ashr i32 %8, 2
  %.084.v = select i1 %.not, i32 1, i32 2
  %.084 = add nsw i32 %.084.v, %14
  %15 = icmp slt i32 %.084, %1
  br i1 %15, label %.loopexit.sink.split, label %16

16:                                               ; preds = %12
  %17 = getelementptr inbounds nuw i8, ptr %4, i64 1532
  %18 = load i32, ptr %17, align 4
  call void @llvm.memset.p0.i64(ptr noundef nonnull align 16 dereferenceable(16) %6, i8 0, i64 16, i1 false)
  %19 = icmp sgt i32 %18, 0
  br i1 %19, label %.lr.ph, label %.preheader98

.lr.ph:                                           ; preds = %16
  %20 = getelementptr inbounds nuw i8, ptr %0, i64 4
  %21 = load i32, ptr %20, align 4
  br label %23

.preheader98:                                     ; preds = %23, %16
  %22 = getelementptr inbounds nuw i8, ptr %4, i64 22
  br label %.preheader97

23:                                               ; preds = %.lr.ph, %23
  %.08299 = phi i32 [ 0, %.lr.ph ], [ %28, %23 ]
  %24 = add nsw i32 %21, %.08299
  %25 = and i32 %24, 3
  %26 = zext nneg i32 %25 to i64
  %27 = getelementptr inbounds nuw [4 x i32], ptr %6, i64 0, i64 %26
  store i32 1, ptr %27, align 4
  %28 = add nuw nsw i32 %.08299, 1
  %exitcond.not = icmp eq i32 %28, %18
  br i1 %exitcond.not, label %.preheader98, label %23, !llvm.loop !21

.preheader97:                                     ; preds = %.preheader98, %39
  %indvars.iv113 = phi i64 [ 0, %.preheader98 ], [ %indvars.iv.next114, %39 ]
  %29 = getelementptr inbounds nuw [4 x i32], ptr %6, i64 0, i64 %indvars.iv113
  %.promoted = load i32, ptr %29, align 4
  br label %31

.preheader96:                                     ; preds = %39
  %30 = load i32, ptr %6, align 16
  br label %44

31:                                               ; preds = %.preheader97, %31
  %indvars.iv = phi i64 [ 0, %.preheader97 ], [ %indvars.iv.next, %31 ]
  %32 = phi i32 [ %.promoted, %.preheader97 ], [ %38, %31 ]
  %33 = getelementptr inbounds nuw [4 x [4 x i16]], ptr %22, i64 0, i64 %indvars.iv113, i64 %indvars.iv
  %34 = load i16, ptr %33, align 2
  %35 = zext i16 %34 to i64
  %36 = getelementptr inbounds nuw [8192 x i32], ptr @counttable, i64 0, i64 %35
  %37 = load i32, ptr %36, align 4
  %38 = add nsw i32 %32, %37
  %indvars.iv.next = add nuw nsw i64 %indvars.iv, 1
  %exitcond112.not = icmp eq i64 %indvars.iv.next, 4
  br i1 %exitcond112.not, label %39, label %31, !llvm.loop !22

39:                                               ; preds = %31
  store i32 %38, ptr %29, align 4
  %indvars.iv.next114 = add nuw nsw i64 %indvars.iv113, 1
  %exitcond116.not = icmp eq i64 %indvars.iv.next114, 4
  br i1 %exitcond116.not, label %.preheader96, label %.preheader97, !llvm.loop !23

40:                                               ; preds = %44
  %indvars.iv.next118 = add nuw nsw i64 %indvars.iv117, 1
  %exitcond120.not = icmp eq i64 %indvars.iv.next118, 4
  br i1 %exitcond120.not, label %.preheader95, label %44, !llvm.loop !24

.preheader95:                                     ; preds = %40
  br i1 %19, label %.preheader94.lr.ph, label %.preheader92.preheader

.preheader92.preheader:                           ; preds = %47, %.preheader95
  br label %.preheader92

.preheader94.lr.ph:                               ; preds = %.preheader95
  %41 = getelementptr inbounds nuw i8, ptr %0, i64 32
  %42 = getelementptr inbounds nuw i8, ptr %0, i64 8
  %43 = getelementptr inbounds nuw i8, ptr %0, i64 20
  %wide.trip.count = zext nneg i32 %18 to i64
  br label %.preheader94

44:                                               ; preds = %.preheader96, %40
  %indvars.iv117 = phi i64 [ 1, %.preheader96 ], [ %indvars.iv.next118, %40 ]
  %45 = getelementptr inbounds nuw [4 x i32], ptr %6, i64 0, i64 %indvars.iv117
  %46 = load i32, ptr %45, align 4
  %.not91 = icmp eq i32 %46, %30
  br i1 %.not91, label %40, label %.loopexit.sink.split

47:                                               ; preds = %57
  %indvars.iv.next125 = add nuw nsw i64 %indvars.iv124, 1
  %exitcond127.not = icmp eq i64 %indvars.iv.next125, %wide.trip.count
  br i1 %exitcond127.not, label %.preheader92.preheader, label %.preheader94, !llvm.loop !25

.preheader94:                                     ; preds = %.preheader94.lr.ph, %47
  %indvars.iv124 = phi i64 [ 0, %.preheader94.lr.ph ], [ %indvars.iv.next125, %47 ]
  %48 = getelementptr inbounds nuw [3 x i32], ptr %42, i64 0, i64 %indvars.iv124
  %49 = load i32, ptr %48, align 4
  %50 = sext i32 %49 to i64
  br label %51

51:                                               ; preds = %.preheader94, %51
  %indvars.iv121 = phi i64 [ 0, %.preheader94 ], [ %indvars.iv.next122, %51 ]
  %.077103 = phi i16 [ 0, %.preheader94 ], [ %56, %51 ]
  %52 = getelementptr inbounds [4 x [4 x i32]], ptr %41, i64 0, i64 %indvars.iv121, i64 %50
  %53 = load i32, ptr %52, align 4
  %54 = lshr i32 %53, 2
  %55 = trunc i32 %54 to i16
  %56 = or i16 %.077103, %55
  %indvars.iv.next122 = add nuw nsw i64 %indvars.iv121, 1
  %exitcond123.not = icmp eq i64 %indvars.iv.next122, 4
  br i1 %exitcond123.not, label %57, label %51, !llvm.loop !26

57:                                               ; preds = %51
  %58 = getelementptr inbounds nuw [3 x i32], ptr %43, i64 0, i64 %indvars.iv124
  %59 = load i32, ptr %58, align 4
  %60 = sext i32 %59 to i64
  %61 = getelementptr inbounds [16 x i16], ptr @bitMapRank, i64 0, i64 %60
  %62 = load i16, ptr %61, align 2
  %63 = and i16 %62, %56
  %.not90 = icmp eq i16 %63, 0
  br i1 %.not90, label %47, label %.loopexit.sink.split

.preheader92:                                     ; preds = %.preheader92.preheader, %72
  %indvars.iv135 = phi i64 [ %indvars.iv.next136, %72 ], [ 0, %.preheader92.preheader ]
  br label %.preheader

.preheader:                                       ; preds = %.preheader92, %71
  %indvars.iv131 = phi i64 [ 2, %.preheader92 ], [ %indvars.iv.next132, %71 ]
  %64 = getelementptr inbounds nuw [16 x i16], ptr @bitMapRank, i64 0, i64 %indvars.iv131
  %65 = load i16, ptr %64, align 2
  br label %67

66:                                               ; preds = %67
  %indvars.iv.next129 = add nuw nsw i64 %indvars.iv128, 1
  %.073.mux = select i1 %.not89, i1 true, i1 %.073106
  %exitcond130.not = icmp eq i64 %indvars.iv.next129, 4
  br i1 %exitcond130.not, label %71, label %67, !llvm.loop !27

67:                                               ; preds = %.preheader, %66
  %indvars.iv128 = phi i64 [ 0, %.preheader ], [ %indvars.iv.next129, %66 ]
  %.073106 = phi i1 [ false, %.preheader ], [ %.073.mux, %66 ]
  %68 = getelementptr inbounds nuw [4 x [4 x i16]], ptr %22, i64 0, i64 %indvars.iv128, i64 %indvars.iv135
  %69 = load i16, ptr %68, align 2
  %70 = and i16 %65, %69
  %.not89 = icmp ne i16 %70, 0
  %brmerge.not = select i1 %.not89, i1 %.073106, i1 false
  br i1 %brmerge.not, label %.loopexit.sink.split, label %66

71:                                               ; preds = %66
  %indvars.iv.next132 = add nuw nsw i64 %indvars.iv131, 1
  %exitcond134.not = icmp eq i64 %indvars.iv.next132, 15
  br i1 %exitcond134.not, label %72, label %.preheader, !llvm.loop !28

72:                                               ; preds = %71
  %indvars.iv.next136 = add nuw nsw i64 %indvars.iv135, 1
  %exitcond138.not = icmp eq i64 %indvars.iv.next136, 4
  br i1 %exitcond138.not, label %.loopexit, label %.preheader92, !llvm.loop !29

.loopexit.sink.split:                             ; preds = %44, %57, %67, %12, %10, %5
  %.sink = phi i32 [ -2, %5 ], [ -10, %10 ], [ -3, %12 ], [ -4, %67 ], [ -13, %57 ], [ -14, %44 ]
  %73 = tail call noundef i32 @_Z9DumpInputiRK4dealiii(i32 noundef %.sink, ptr noundef nonnull align 4 dereferenceable(96) %0, i32 noundef %1, i32 noundef %2, i32 noundef %3)
  br label %.loopexit

.loopexit:                                        ; preds = %72, %.loopexit.sink.split
  %.083 = phi i32 [ %.sink, %.loopexit.sink.split ], [ 1, %72 ]
  ret i32 %.083
}